; ModuleID = '46/1012.c'
source_filename = "46/1012.c"
target datalayout = "e-m:e-p270:32:32-p271:32:32-p272:64:64-i64:64-f80:128-n8:16:32:64-S128"
target triple = "x86_64-pc-linux-gnu"

@dir = dso_local global [4 x [2 x i32]] [[2 x i32] [i32 0, i32 1], [2 x i32] [i32 1, i32 0], [2 x i32] [i32 0, i32 -1], [2 x i32] [i32 -1, i32 0]], align 16
@.str = private unnamed_addr constant [5 x i8] c"%d%d\00", align 1
@row = common dso_local global i32 0, align 4
@col = common dso_local global i32 0, align 4
@.str.1 = private unnamed_addr constant [3 x i8] c"%d\00", align 1
@a = common dso_local global [200 x [200 x i32]] zeroinitializer, align 16
@.str.2 = private unnamed_addr constant [4 x i8] c"%d\0A\00", align 1
@k = common dso_local global i32 0, align 4

; Function Attrs: noinline nounwind uwtable
define dso_local i32 @main() #0 {
  %1 = alloca i32, align 4
  %2 = alloca i32, align 4
  %3 = alloca i32, align 4
  %4 = alloca i32, align 4
  %5 = alloca i32, align 4
  %6 = alloca i32, align 4
  %7 = alloca i32, align 4
  %8 = alloca i32, align 4
  store i32 0, i32* %1, align 4
  %9 = call i32 (i8*, ...) @__isoc99_scanf(i8* getelementptr inbounds ([5 x i8], [5 x i8]* @.str, i64 0, i64 0), i32* @row, i32* @col)
  store i32 0, i32* %2, align 4
  br label %10

10:                                               ; preds = %31, %0
  %11 = load i32, i32* %2, align 4
  %12 = load i32, i32* @row, align 4
  %13 = icmp slt i32 %11, %12
  br i1 %13, label %14, label %34

14:                                               ; preds = %10
  store i32 0, i32* %3, align 4
  br label %15

15:                                               ; preds = %27, %14
  %16 = load i32, i32* %3, align 4
  %17 = load i32, i32* @col, align 4
  %18 = icmp slt i32 %16, %17
  br i1 %18, label %19, label %30

19:                                               ; preds = %15
  %20 = load i32, i32* %2, align 4
  %21 = sext i32 %20 to i64
  %22 = getelementptr inbounds [200 x [200 x i32]], [200 x [200 x i32]]* @a, i64 0, i64 %21
  %23 = load i32, i32* %3, align 4
  %24 = sext i32 %23 to i64
  %25 = getelementptr inbounds [200 x i32], [200 x i32]* %22, i64 0, i64 %24
  %26 = call i32 (i8*, ...) @__isoc99_scanf(i8* getelementptr inbounds ([3 x i8], [3 x i8]* @.str.1, i64 0, i64 0), i32* %25)
  br label %27

27:                                               ; preds = %19
  %28 = load i32, i32* %3, align 4
  %29 = add nsw i32 %28, 1
  store i32 %29, i32* %3, align 4
  br label %15

30:                                               ; preds = %15
  br label %31

31:                                               ; preds = %30
  %32 = load i32, i32* %2, align 4
  %33 = add nsw i32 %32, 1
  store i32 %33, i32* %2, align 4
  br label %10

34:                                               ; preds = %10
  store i32 0, i32* %4, align 4
  store i32 0, i32* %5, align 4
  store i32 0, i32* %6, align 4
  br label %35

35:                                               ; preds = %34, %86, %129
  %36 = load i32, i32* %5, align 4
  %37 = sext i32 %36 to i64
  %38 = getelementptr inbounds [200 x [200 x i32]], [200 x [200 x i32]]* @a, i64 0, i64 %37
  %39 = load i32, i32* %6, align 4
  %40 = sext i32 %39 to i64
  %41 = getelementptr inbounds [200 x i32], [200 x i32]* %38, i64 0, i64 %40
  %42 = load i32, i32* %41, align 4
  %43 = call i32 (i8*, ...) @printf(i8* getelementptr inbounds ([4 x i8], [4 x i8]* @.str.2, i64 0, i64 0), i32 %42)
  %44 = load i32, i32* %5, align 4
  %45 = sext i32 %44 to i64
  %46 = getelementptr inbounds [200 x [200 x i32]], [200 x [200 x i32]]* @a, i64 0, i64 %45
  %47 = load i32, i32* %6, align 4
  %48 = sext i32 %47 to i64
  %49 = getelementptr inbounds [200 x i32], [200 x i32]* %46, i64 0, i64 %48
  store i32 -1, i32* %49, align 4
  %50 = load i32, i32* %5, align 4
  %51 = load i32, i32* %4, align 4
  %52 = sext i32 %51 to i64
  %53 = getelementptr inbounds [4 x [2 x i32]], [4 x [2 x i32]]* @dir, i64 0, i64 %52
  %54 = getelementptr inbounds [2 x i32], [2 x i32]* %53, i64 0, i64 0
  %55 = load i32, i32* %54, align 8
  %56 = add nsw i32 %50, %55
  store i32 %56, i32* %7, align 4
  %57 = load i32, i32* %6, align 4
  %58 = load i32, i32* %4, align 4
  %59 = sext i32 %58 to i64
  %60 = getelementptr inbounds [4 x [2 x i32]], [4 x [2 x i32]]* @dir, i64 0, i64 %59
  %61 = getelementptr inbounds [2 x i32], [2 x i32]* %60, i64 0, i64 1
  %62 = load i32, i32* %61, align 4
  %63 = add nsw i32 %57, %62
  store i32 %63, i32* %8, align 4
  %64 = load i32, i32* %7, align 4
  %65 = icmp sge i32 %64, 0
  br i1 %65, label %66, label %89

66:                                               ; preds = %35
  %67 = load i32, i32* %7, align 4
  %68 = load i32, i32* @row, align 4
  %69 = icmp slt i32 %67, %68
  br i1 %69, label %70, label %89

70:                                               ; preds = %66
  %71 = load i32, i32* %8, align 4
  %72 = icmp sge i32 %71, 0
  br i1 %72, label %73, label %89

73:                                               ; preds = %70
  %74 = load i32, i32* %8, align 4
  %75 = load i32, i32* @col, align 4
  %76 = icmp slt i32 %74, %75
  br i1 %76, label %77, label %89

77:                                               ; preds = %73
  %78 = load i32, i32* %7, align 4
  %79 = sext i32 %78 to i64
  %80 = getelementptr inbounds [200 x [200 x i32]], [200 x [200 x i32]]* @a, i64 0, i64 %79
  %81 = load i32, i32* %8, align 4
  %82 = sext i32 %81 to i64
  %83 = getelementptr inbounds [200 x i32], [200 x i32]* %80, i64 0, i64 %82
  %84 = load i32, i32* %83, align 4
  %85 = icmp ne i32 %84, -1
  br i1 %85, label %86, label %89

86:                                               ; preds = %77
  %87 = load i32, i32* %7, align 4
  store i32 %87, i32* %5, align 4
  %88 = load i32, i32* %8, align 4
  store i32 %88, i32* %6, align 4
  br label %35

89:                                               ; preds = %77, %73, %70, %66, %35
  %90 = load i32, i32* %4, align 4
  %91 = add nsw i32 %90, 1
  %92 = srem i32 %91, 4
  store i32 %92, i32* %4, align 4
  %93 = load i32, i32* %5, align 4
  %94 = load i32, i32* %4, align 4
  %95 = sext i32 %94 to i64
  %96 = getelementptr inbounds [4 x [2 x i32]], [4 x [2 x i32]]* @dir, i64 0, i64 %95
  %97 = getelementptr inbounds [2 x i32], [2 x i32]* %96, i64 0, i64 0
  %98 = load i32, i32* %97, align 8
  %99 = add nsw i32 %93, %98
  store i32 %99, i32* %7, align 4
  %100 = load i32, i32* %6, align 4
  %101 = load i32, i32* %4, align 4
  %102 = sext i32 %101 to i64
  %103 = getelementptr inbounds [4 x [2 x i32]], [4 x [2 x i32]]* @dir, i64 0, i64 %102
  %104 = getelementptr inbounds [2 x i32], [2 x i32]* %103, i64 0, i64 1
  %105 = load i32, i32* %104, align 4
  %106 = add nsw i32 %100, %105
  store i32 %106, i32* %8, align 4
  %107 = load i32, i32* %7, align 4
  %108 = icmp sge i32 %107, 0
  br i1 %108, label %109, label %132

109:                                              ; preds = %89
  %110 = load i32, i32* %7, align 4
  %111 = load i32, i32* @row, align 4
  %112 = icmp slt i32 %110, %111
  br i1 %112, label %113, label %132

113:                                              ; preds = %109
  %114 = load i32, i32* %8, align 4
  %115 = icmp sge i32 %114, 0
  br i1 %115, label %116, label %132

116:                                              ; preds = %113
  %117 = load i32, i32* %8, align 4
  %118 = load i32, i32* @col, align 4
  %119 = icmp slt i32 %117, %118
  br i1 %119, label %120, label %132

120:                                              ; preds = %116
  %121 = load i32, i32* %7, align 4
  %122 = sext i32 %121 to i64
  %123 = getelementptr inbounds [200 x [200 x i32]], [200 x [200 x i32]]* @a, i64 0, i64 %122
  %124 = load i32, i32* %8, align 4
  %125 = sext i32 %124 to i64
  %126 = getelementptr inbounds [200 x i32], [200 x i32]* %123, i64 0, i64 %125
  %127 = load i32, i32* %126, align 4
  %128 = icmp ne i32 %127, -1
  br i1 %128, label %129, label %132

129:                                              ; preds = %120
  %130 = load i32, i32* %7, align 4
  store i32 %130, i32* %5, align 4
  %131 = load i32, i32* %8, align 4
  store i32 %131, i32* %6, align 4
  br label %35

132:                                              ; preds = %120, %116, %113, %109, %89
  br label %133

133:                                              ; preds = %132
  %134 = load i32, i32* %1, align 4
  ret i32 %134
}

declare dso_local i32 @__isoc99_scanf(i8*, ...) #1

declare dso_local i32 @printf(i8*, ...) #1


!llvm.module.flags = !{!0}
!llvm.ident = !{!1}

!0 = !{i32 1, !"wchar_size", i32 4}
!1 = !{!"clang version 10.0.0-4ubuntu1 "}
